(dp0
S'do'
p1
I1
sS'ac'
p2
I1
sS'http'
p3
I1
sS'kut'
p4
I1
sS'replace'
p5
I1
sS'kr'
p6
I1
sS'KOREATECH'
p7
I1
sS'logout'
p8
I1
sS'location'
p9
I1
sS'Mail'
p10
I1
sS'E'
p11
I1
sS'email'
p12
I1
sS'common'
p13
I1
s.