(dp0
S'United'
p1
I1
sS'process'
p2
I1
sS'Corporation'
p3
I1
sS'is'
p4
I1
sS'English'
p5
I1
sS'an'
p6
I1
sS'Homepage'
p7
I1
sS'click'
p8
I1
sS'if'
p9
I1
sS'incorrect'
p10
I1
sS'from'
p11
I1
sS'please'
p12
I1
sS'Microsoft'
p13
I2
sS'current'
p14
I1
sS'to'
p15
I1
sS'User'
p16
I1
sS'be'
p17
I1
sS'string'
p18
I1
sS'link'
p19
I1
sS'automated'
p20
I1
sS'appears'
p21
I1
sS'this'
p22
I2
sS'Agent'
p23
I1
sS'States'
p24
I1
sS'Your'
p25
I1
s.